target datalayout = "e-m:e-p270:32:32-p271:32:32-p272:64:64-i64:64-i128:128-f80:128-n8:16:32:64-S128"
target triple = "x86_64-unknown-linux-gnu"

%"class.arrow::Result" = type { %"class.arrow::Status", %"class.arrow::internal::AlignedStorage" }
%"class.arrow::Status" = type { ptr }
%"class.arrow::internal::AlignedStorage" = type { %"union.std::aligned_storage<16, 8>::type" }
%"union.std::aligned_storage<16, 8>::type" = type { [16 x i8] }

; Function Attrs: mustprogress uwtable
define void @_ZN5arrow19AllocateEmptyBitmapElPNS_10MemoryPoolE(ptr noalias sret(%"class.arrow::Result") align 8 %agg.result, i64 noundef %length, ptr noundef %pool) #0 {
entry:
  %result.ptr = alloca ptr, align 8
  %length.addr = alloca i64, align 8
  %pool.addr = alloca ptr, align 8
  store ptr %agg.result, ptr %result.ptr, align 8
  store i64 %length, ptr %length.addr, align 8
  store ptr %pool, ptr %pool.addr, align 8
  %0 = load i64, ptr %length.addr, align 8
  %1 = load ptr, ptr %pool.addr, align 8
  call void @_ZN5arrow19AllocateEmptyBitmapEllPNS_10MemoryPoolE(ptr sret(%"class.arrow::Result") align 8 %agg.result, i64 noundef %0, i64 noundef 64, ptr noundef %1)
  ret void
}

; Function Attrs: mustprogress uwtable
define void @_ZN5arrow19AllocateEmptyBitmapElPSt10shared_ptrINS_6BufferEE(ptr noalias sret(%"class.arrow::Status") align 8 %agg.result, i64 noundef %length, ptr noundef %out) #0 personality ptr @__gxx_personality_v0 {
entry:
  %result.ptr = alloca ptr, align 8
  %length.addr = alloca i64, align 8
  %out.addr = alloca ptr, align 8
  %ref.tmp = alloca %"class.arrow::Result", align 8
  %exn.slot = alloca ptr, align 8
  %ehselector.slot = alloca i32, align 4
  store ptr %agg.result, ptr %result.ptr, align 8
  store i64 %length, ptr %length.addr, align 8
  store ptr %out, ptr %out.addr, align 8
  %0 = load i64, ptr %length.addr, align 8
  call void @_ZN5arrow19AllocateEmptyBitmapElPNS_10MemoryPoolE(ptr sret(%"class.arrow::Result") align 8 %ref.tmp, i64 noundef %0, ptr noundef null)
  %1 = load ptr, ptr %out.addr, align 8
  invoke void @_ZNO5arrow6ResultISt10shared_ptrINS_6BufferEEE5ValueIS3_vEENS_6StatusEPT_(ptr sret(%"class.arrow::Status") align 8 %agg.result, ptr noundef nonnull align 8 dereferenceable(24) %ref.tmp, ptr noundef %1)
          to label %invoke.cont unwind label %lpad

invoke.cont:                                      ; preds = %entry
  call void @_ZN5arrow6ResultISt10shared_ptrINS_6BufferEEED2Ev(ptr noundef nonnull align 8 dereferenceable(24) %ref.tmp) #13
  ret void

lpad:                                             ; preds = %entry
  %2 = landingpad { ptr, i32 }
          cleanup
  %3 = extractvalue { ptr, i32 } %2, 0
  store ptr %3, ptr %exn.slot, align 8
  %4 = extractvalue { ptr, i32 } %2, 1
  store i32 %4, ptr %ehselector.slot, align 4
  call void @_ZN5arrow6ResultISt10shared_ptrINS_6BufferEEED2Ev(ptr noundef nonnull align 8 dereferenceable(24) %ref.tmp) #13
  br label %eh.resume

eh.resume:                                        ; preds = %lpad
  %exn = load ptr, ptr %exn.slot, align 8
  %sel = load i32, ptr %ehselector.slot, align 4
  %lpad.val = insertvalue { ptr, i32 } poison, ptr %exn, 0
  %lpad.val1 = insertvalue { ptr, i32 } %lpad.val, i32 %sel, 1
  resume { ptr, i32 } %lpad.val1
}