; Function Attrs: mustprogress uwtable
define void @_ZN5arrow19AllocateEmptyBitmapElPSt10shared_ptrINS_6BufferEE(ptr noalias sret(%"class.arrow::Status") align 8 %agg.result, i64 noundef %length, ptr noundef %out) local_unnamed_addr #0 personality ptr @__gxx_personality_v0 {
entry:
  %ref.tmp = alloca %"class.arrow::Result", align 8
  call void @_ZN5arrow19AllocateEmptyBitmapEllPNS_10MemoryPoolE(ptr nonnull sret(%"class.arrow::Result") align 8 %ref.tmp, i64 noundef %length, i64 noundef 64, ptr noundef null)
  invoke void @_ZNO5arrow6ResultISt10shared_ptrINS_6BufferEEE5ValueIS3_vEENS_6StatusEPT_(ptr sret(%"class.arrow::Status") align 8 %agg.result, ptr noundef nonnull align 8 dereferenceable(24) %ref.tmp, ptr noundef %out)
          to label %invoke.cont unwind label %lpad

invoke.cont:                                      ; preds = %entry
  call void @_ZN5arrow6ResultISt10shared_ptrINS_6BufferEEED2Ev(ptr noundef nonnull align 8 dereferenceable(24) %ref.tmp) #16
  ret void

lpad:                                             ; preds = %entry
  %0 = landingpad { ptr, i32 }
          cleanup
  call void @_ZN5arrow6ResultISt10shared_ptrINS_6BufferEEED2Ev(ptr noundef nonnull align 8 dereferenceable(24) %ref.tmp) #16
  resume { ptr, i32 } %0
}